; ModuleID = '44/386.c'
source_filename = "44/386.c"
target datalayout = "e-m:e-p270:32:32-p271:32:32-p272:64:64-i64:64-f80:128-n8:16:32:64-S128"
target triple = "x86_64-pc-linux-gnu"

@.str = private unnamed_addr constant [3 x i8] c"%d\00", align 1
@.str.1 = private unnamed_addr constant [4 x i8] c"%d\0A\00", align 1

; Function Attrs: noinline nounwind uwtable
define dso_local i32 @main() #0 {
  %1 = alloca i32, align 4
  %2 = alloca i32, align 4
  %3 = alloca i32, align 4
  store i32 0, i32* %1, align 4
  store i32 0, i32* %3, align 4
  br label %4

4:                                                ; preds = %12, %0
  %5 = load i32, i32* %3, align 4
  %6 = icmp slt i32 %5, 6
  br i1 %6, label %7, label %15

7:                                                ; preds = %4
  %8 = call i32 (i8*, ...) @__isoc99_scanf(i8* getelementptr inbounds ([3 x i8], [3 x i8]* @.str, i64 0, i64 0), i32* %2)
  %9 = load i32, i32* %2, align 4
  %10 = call i32 @reverse(i32 %9)
  %11 = call i32 (i8*, ...) @printf(i8* getelementptr inbounds ([4 x i8], [4 x i8]* @.str.1, i64 0, i64 0), i32 %10)
  br label %12

12:                                               ; preds = %7
  %13 = load i32, i32* %3, align 4
  %14 = add nsw i32 %13, 1
  store i32 %14, i32* %3, align 4
  br label %4

15:                                               ; preds = %4
  ret i32 0
}

declare dso_local i32 @__isoc99_scanf(i8*, ...) #1

declare dso_local i32 @printf(i8*, ...) #1

; Function Attrs: noinline nounwind uwtable
define dso_local i32 @reverse(i32 %0) #0 {
  %2 = alloca i32, align 4
  %3 = alloca [20 x i32], align 16
  %4 = alloca i32, align 4
  %5 = alloca i32, align 4
  %6 = alloca i32, align 4
  store i32 %0, i32* %2, align 4
  store i32 0, i32* %6, align 4
  %7 = load i32, i32* %2, align 4
  %8 = icmp sgt i32 %7, 0
  br i1 %8, label %9, label %10

9:                                                ; preds = %1
  store i32 1, i32* %6, align 4
  br label %10

10:                                               ; preds = %9, %1
  store i32 0, i32* %4, align 4
  br label %11

11:                                               ; preds = %28, %10
  %12 = load i32, i32* %2, align 4
  %13 = srem i32 %12, 10
  %14 = load i32, i32* %4, align 4
  %15 = sext i32 %14 to i64
  %16 = getelementptr inbounds [20 x i32], [20 x i32]* %3, i64 0, i64 %15
  store i32 %13, i32* %16, align 4
  %17 = load i32, i32* %2, align 4
  %18 = load i32, i32* %4, align 4
  %19 = sext i32 %18 to i64
  %20 = getelementptr inbounds [20 x i32], [20 x i32]* %3, i64 0, i64 %19
  %21 = load i32, i32* %20, align 4
  %22 = sub nsw i32 %17, %21
  %23 = sdiv i32 %22, 10
  store i32 %23, i32* %2, align 4
  %24 = load i32, i32* %2, align 4
  %25 = icmp eq i32 %24, 0
  br i1 %25, label %26, label %27

26:                                               ; preds = %11
  br label %31

27:                                               ; preds = %11
  br label %28

28:                                               ; preds = %27
  %29 = load i32, i32* %4, align 4
  %30 = add nsw i32 %29, 1
  store i32 %30, i32* %4, align 4
  br label %11

31:                                               ; preds = %26
  %32 = load i32, i32* %4, align 4
  store i32 %32, i32* %5, align 4
  store i32 0, i32* %4, align 4
  br label %33

33:                                               ; preds = %47, %31
  %34 = load i32, i32* %4, align 4
  %35 = load i32, i32* %5, align 4
  %36 = sdiv i32 %35, 2
  %37 = icmp sle i32 %34, %36
  br i1 %37, label %38, label %50

38:                                               ; preds = %33
  %39 = load i32, i32* %4, align 4
  %40 = sext i32 %39 to i64
  %41 = getelementptr inbounds [20 x i32], [20 x i32]* %3, i64 0, i64 %40
  %42 = load i32, i32* %5, align 4
  %43 = load i32, i32* %4, align 4
  %44 = sub nsw i32 %42, %43
  %45 = sext i32 %44 to i64
  %46 = getelementptr inbounds [20 x i32], [20 x i32]* %3, i64 0, i64 %45
  call void @swap(i32* %41, i32* %46)
  br label %47

47:                                               ; preds = %38
  %48 = load i32, i32* %4, align 4
  %49 = add nsw i32 %48, 1
  store i32 %49, i32* %4, align 4
  br label %33

50:                                               ; preds = %33
  %51 = load i32, i32* %5, align 4
  store i32 %51, i32* %4, align 4
  br label %52

52:                                               ; preds = %63, %50
  %53 = load i32, i32* %4, align 4
  %54 = icmp sge i32 %53, 0
  br i1 %54, label %55, label %66

55:                                               ; preds = %52
  %56 = load i32, i32* %2, align 4
  %57 = load i32, i32* %4, align 4
  %58 = sext i32 %57 to i64
  %59 = getelementptr inbounds [20 x i32], [20 x i32]* %3, i64 0, i64 %58
  %60 = load i32, i32* %59, align 4
  %61 = add nsw i32 %56, %60
  %62 = mul nsw i32 %61, 10
  store i32 %62, i32* %2, align 4
  br label %63

63:                                               ; preds = %55
  %64 = load i32, i32* %4, align 4
  %65 = add nsw i32 %64, -1
  store i32 %65, i32* %4, align 4
  br label %52

66:                                               ; preds = %52
  %67 = load i32, i32* %2, align 4
  %68 = sdiv i32 %67, 10
  store i32 %68, i32* %2, align 4
  %69 = load i32, i32* %2, align 4
  ret i32 %69
}

; Function Attrs: noinline nounwind uwtable
define dso_local void @swap(i32* %0, i32* %1) #0 {
  %3 = alloca i32*, align 8
  %4 = alloca i32*, align 8
  %5 = alloca i32, align 4
  store i32* %0, i32** %3, align 8
  store i32* %1, i32** %4, align 8
  %6 = load i32*, i32** %3, align 8
  %7 = load i32, i32* %6, align 4
  store i32 %7, i32* %5, align 4
  %8 = load i32*, i32** %4, align 8
  %9 = load i32, i32* %8, align 4
  %10 = load i32*, i32** %3, align 8
  store i32 %9, i32* %10, align 4
  %11 = load i32, i32* %5, align 4
  %12 = load i32*, i32** %4, align 8
  store i32 %11, i32* %12, align 4
  ret void
}


!llvm.module.flags = !{!0}
!llvm.ident = !{!1}

!0 = !{i32 1, !"wchar_size", i32 4}
!1 = !{!"clang version 10.0.0-4ubuntu1 "}
